; Function Attrs: mustprogress nounwind uwtable
define hidden void @_ZN9JfrBuffer13clear_retiredEv(ptr noundef nonnull align 8 dereferenceable(48) %0) local_unnamed_addr #1 align 2 {
  %2 = getelementptr inbounds i8, ptr %0, i64 42
  %3 = load volatile i8, ptr %2, align 2
  tail call void asm sideeffect "", "~{memory},~{dirflag},~{fpsr},~{flags}"() #6, !srcloc !6
  %4 = and i8 %3, 1
  %.not = icmp eq i8 %4, 0
  br i1 %.not, label %8, label %5

5:                                                ; preds = %1
  tail call void asm sideeffect "", "~{memory},~{dirflag},~{fpsr},~{flags}"() #6, !srcloc !6
  %6 = load i8, ptr %2, align 2
  %7 = xor i8 %6, 1
  store i8 %7, ptr %2, align 2
  br label %8

8:                                                ; preds = %5, %1
  ret void
}